Certificate:
    Data:
        Version: 3 (0x2)
        Serial Number: 1 (0x1)
    Signature Algorithm: sha256WithRSAEncryption
        Issuer: CN=devcert
        Validity
            Not Before: Mar 27 22:12:03 2022 GMT
            Not After : Jun 29 22:12:03 2024 GMT
        Subject: CN=localhost
        Subject Public Key Info:
            Public Key Algorithm: rsaEncryption
                Public-Key: (2048 bit)
                Modulus:
                    00:b4:bd:f6:05:14:85:2e:f4:67:b4:f5:b2:b2:e6:
                    06:69:f9:52:76:c6:3c:31:d7:70:dc:f4:02:ec:35:
                    55:e9:a8:2b:32:12:44:3a:fe:ed:14:c7:b2:9d:96:
                    72:c9:18:5f:bb:59:1f:2a:43:6b:ee:6b:14:57:5a:
                    3f:b0:19:d0:aa:b6:b9:8e:5d:cb:f8:46:c0:ec:e7:
                    82:ce:bb:e4:c7:8b:55:00:6d:95:f3:e2:a7:99:6d:
                    78:ff:0f:bc:5d:0b:58:4d:a9:ef:07:c7:16:8b:13:
                    e2:c0:dd:d1:81:ef:3c:4e:50:b2:46:a7:86:74:c8:
                    05:11:a8:93:5a:fc:da:0f:3d:57:da:e7:e4:a4:c3:
                    49:71:c5:be:c9:ec:dd:f7:10:17:dc:7e:0f:19:a9:
                    8a:c9:68:d3:00:69:94:c5:55:e5:06:aa:55:85:18:
                    b4:d4:90:4d:c3:96:16:de:66:35:99:04:60:cb:34:
                    42:e1:89:72:6c:65:66:38:a2:aa:37:e9:99:ab:35:
                    24:b4:b2:14:c1:73:9f:3c:f9:be:56:41:fa:d0:f2:
                    09:f9:57:ba:42:a2:f8:94:0f:bb:1a:2d:36:53:b7:
                    9b:cf:5c:34:50:15:9b:b6:13:9d:f9:6e:ea:83:b1:
                    ae:11:cf:49:02:36:c3:4a:35:e0:da:04:9c:30:c2:
                    03:5b
                Exponent: 65537 (0x10001)
        X509v3 extensions:
            X509v3 Basic Constraints: critical
                CA:FALSE
            X509v3 Subject Key Identifier: 
                91:C0:3C:D3:27:6A:94:D2:60:1B:39:97:33:E5:AF:E0:CB:61:7E:71
            X509v3 Authority Key Identifier: 
                keyid:80:06:9D:EF:C9:51:2F:29:D4:5D:A0:79:2E:09:15:6E:75:88:BA:1E
                DirName:/CN=devcert
                serial:A9:0E:89:5B:73:B3:F5:0D

            X509v3 Key Usage: critical
                Digital Signature, Key Encipherment
            X509v3 Extended Key Usage: 
                TLS Web Server Authentication
            X509v3 Subject Alternative Name: 
                DNS:localhost, DNS:*.localhost
    Signature Algorithm: sha256WithRSAEncryption
         25:d3:f5:4c:ec:1c:30:95:5a:51:dd:03:e9:8f:69:7c:b0:b0:
         45:c1:d3:a0:5b:2d:0e:7c:27:a8:12:0f:c9:52:78:3d:13:2e:
         9a:6a:16:23:b6:41:28:a8:67:a5:74:09:bf:d7:d5:6c:60:9f:
         0d:d7:2b:80:2d:f5:f5:ef:fb:60:dd:d2:9c:99:2d:f3:e1:25:
         f2:0c:7f:eb:ca:6e:f0:9a:5f:c3:67:28:55:e7:5a:d9:11:f6:
         e6:4a:59:1b:0f:b2:d1:d0:91:f0:84:a5:4f:df:a0:9e:c7:e1:
         9a:20:ee:19:1e:c8:f7:bd:2d:65:90:4e:a6:45:42:3b:3a:d4:
         18:1e:06:4c:47:e6:f9:72:fc:1c:d4:35:be:57:ab:5e:a8:c8:
         5a:5f:d1:7b:a4:ac:92:df:db:99:7f:72:51:a4:55:ee:91:b0:
         d1:16:2b:fd:2b:78:af:b5:ec:fc:02:78:ac:a4:6c:56:5c:8b:
         9a:2a:70:d9:cb:fb:59:17:e0:a1:df:47:f1:c8:a8:72:7c:76:
         30:ac:ba:a1:75:2a:24:0b:1e:ee:08:af:a1:6c:f3:af:84:f2:
         df:f0:36:1c:c0:c1:bd:3f:c8:60:75:18:cf:0b:27:c7:ce:e0:
         bb:a7:80:0b:63:0d:04:ba:58:ad:fa:b3:be:48:9c:86:49:37:
         1d:36:74:db
-----BEGIN CERTIFICATE-----
MIIDXjCCAkagAwIBAgIBATANBgkqhkiG9w0BAQsFADASMRAwDgYDVQQDDAdkZXZj
ZXJ0MB4XDTIyMDMyNzIyMTIwM1oXDTI0MDYyOTIyMTIwM1owFDESMBAGA1UEAwwJ
bG9jYWxob3N0MIIBIjANBgkqhkiG9w0BAQEFAAOCAQ8AMIIBCgKCAQEAtL32BRSF
LvRntPWysuYGaflSdsY8Mddw3PQC7DVV6agrMhJEOv7tFMeynZZyyRhfu1kfKkNr
7msUV1o/sBnQqra5jl3L+EbA7OeCzrvkx4tVAG2V8+KnmW14/w+8XQtYTanvB8cW
ixPiwN3Rge88TlCyRqeGdMgFEaiTWvzaDz1X2ufkpMNJccW+yezd9xAX3H4PGamK
yWjTAGmUxVXlBqpVhRi01JBNw5YW3mY1mQRgyzRC4YlybGVmOKKqN+mZqzUktLIU
wXOfPPm+VkH60PIJ+Ve6QqL4lA+7Gi02U7ebz1w0UBWbthOd+W7qg7GuEc9JAjbD
SjXg2gScMMIDWwIDAQABo4G8MIG5MAwGA1UdEwEB/wQCMAAwHQYDVR0OBBYEFJHA
PNMnapTSYBs5lzPlr+DLYX5xMEIGA1UdIwQ7MDmAFIAGne/JUS8p1F2geS4JFW51
iLoeoRakFDASMRAwDgYDVQQDDAdkZXZjZXJ0ggkAqQ6JW3Oz9Q0wDgYDVR0PAQH/
BAQDAgWgMBMGA1UdJQQMMAoGCCsGAQUFBwMBMCEGA1UdEQQaMBiCCWxvY2FsaG9z
dIILKi5sb2NhbGhvc3QwDQYJKoZIhvcNAQELBQADggEBACXT9UzsHDCVWlHdA+mP
aXywsEXB06BbLQ58J6gSD8lSeD0TLppqFiO2QSioZ6V0Cb/X1Wxgnw3XK4At9fXv
+2Dd0pyZLfPhJfIMf+vKbvCaX8NnKFXnWtkR9uZKWRsPstHQkfCEpU/foJ7H4Zog
7hkeyPe9LWWQTqZFQjs61BgeBkxH5vly/BzUNb5Xq16oyFpf0XukrJLf25l/clGk
Ve6RsNEWK/0reK+17PwCeKykbFZci5oqcNnL+1kX4KHfR/HIqHJ8djCsuqF1KiQL
Hu4Ir6Fs86+E8t/wNhzAwb0/yGB1GM8LJ8fO4LungAtjDQS6WK36s75InIZJNx02
dNs=
-----END CERTIFICATE-----
